; Function Attrs: nounwind uwtable
define internal ptr @_codecs_unicode_escape_decode(ptr readnone captures(none) %0, ptr noundef readonly captures(none) %1, i64 noundef %2) #0 {
  %4 = alloca i64, align 8
  %5 = alloca %struct.Py_buffer, align 8
  %6 = alloca i64, align 8
  %7 = alloca i64, align 8
  call void @llvm.lifetime.start.p0(i64 80, ptr nonnull %5) #5
  call void @llvm.memset.p0.i64(ptr noundef nonnull align 8 dereferenceable(80) %5, i8 0, i64 80, i1 false)
  %8 = add i64 %2, -1
  %or.cond = icmp ult i64 %8, 3
  br i1 %or.cond, label %11, label %9

9:                                                ; preds = %3
  %10 = tail call i32 @_PyArg_CheckPositional(ptr noundef nonnull @.str.27, i64 noundef %2, i64 noundef 1, i64 noundef 3) #5
  %.not = icmp eq i32 %10, 0
  br i1 %.not, label %64, label %11

11:                                               ; preds = %3, %9
  %12 = load ptr, ptr %1, align 8, !tbaa !22
  %13 = getelementptr i8, ptr %12, i64 8
  %.val = load ptr, ptr %13, align 8, !tbaa !4
  %14 = getelementptr i8, ptr %.val, i64 168
  %.val46 = load i64, ptr %14, align 8, !tbaa !10
  %15 = and i64 %.val46, 268435456
  %.not36 = icmp eq i64 %15, 0
  br i1 %.not36, label %25, label %16

16:                                               ; preds = %11
  call void @llvm.lifetime.start.p0(i64 8, ptr nonnull %6) #5
  %17 = call ptr @PyUnicode_AsUTF8AndSize(ptr noundef nonnull %12, ptr noundef nonnull %6) #5
  %18 = icmp eq ptr %17, null
  br i1 %18, label %.thread, label %19

19:                                               ; preds = %16
  %20 = load ptr, ptr %1, align 8, !tbaa !22
  %21 = load i64, ptr %6, align 8, !tbaa !21
  %22 = call i32 @PyBuffer_FillInfo(ptr noundef nonnull %5, ptr noundef %20, ptr noundef nonnull %17, i64 noundef %21, i32 noundef 1, i32 noundef 0) #5
  %23 = icmp slt i32 %22, 0
  br i1 %23, label %.thread, label %24

.thread:                                          ; preds = %16, %19
  call void @llvm.lifetime.end.p0(i64 8, ptr nonnull %6) #5
  br label %64

24:                                               ; preds = %19
  call void @llvm.lifetime.end.p0(i64 8, ptr nonnull %6) #5
  br label %27

25:                                               ; preds = %11
  %26 = call i32 @PyObject_GetBuffer(ptr noundef nonnull %12, ptr noundef nonnull %5, i32 noundef 0) #5
  %.not37 = icmp eq i32 %26, 0
  br i1 %.not37, label %27, label %64

27:                                               ; preds = %24, %25
  %28 = icmp slt i64 %2, 2
  br i1 %28, label %.thread57, label %29

29:                                               ; preds = %27
  %30 = getelementptr i8, ptr %1, i64 8
  %31 = load ptr, ptr %30, align 8, !tbaa !22
  %32 = icmp eq ptr %31, @_Py_NoneStruct
  br i1 %32, label %47, label %33

33:                                               ; preds = %29
  %34 = getelementptr i8, ptr %31, i64 8
  %.val45 = load ptr, ptr %34, align 8, !tbaa !4
  %35 = getelementptr i8, ptr %.val45, i64 168
  %.val47 = load i64, ptr %35, align 8, !tbaa !10
  %36 = and i64 %.val47, 268435456
  %.not38 = icmp eq i64 %36, 0
  br i1 %.not38, label %46, label %37

37:                                               ; preds = %33
  call void @llvm.lifetime.start.p0(i64 8, ptr nonnull %7) #5
  %38 = call ptr @PyUnicode_AsUTF8AndSize(ptr noundef %31, ptr noundef nonnull %7) #5
  %39 = icmp eq ptr %38, null
  br i1 %39, label %.thread53, label %40

40:                                               ; preds = %37
  %41 = call i64 @strlen(ptr noundef nonnull dereferenceable(1) %38) #6
  %42 = load i64, ptr %7, align 8, !tbaa !21
  %.not39 = icmp eq i64 %41, %42
  br i1 %.not39, label %45, label %43

43:                                               ; preds = %40
  %44 = load ptr, ptr @PyExc_ValueError, align 8, !tbaa !22
  call void @PyErr_SetString(ptr noundef %44, ptr noundef nonnull @.str.44) #5
  br label %.thread53

.thread53:                                        ; preds = %43, %37
  call void @llvm.lifetime.end.p0(i64 8, ptr nonnull %7) #5
  br label %64

45:                                               ; preds = %40
  call void @llvm.lifetime.end.p0(i64 8, ptr nonnull %7) #5
  br label %47

46:                                               ; preds = %33
  call void @_PyArg_BadArgument(ptr noundef nonnull @.str.27, ptr noundef nonnull @.str.52, ptr noundef nonnull @.str.53, ptr noundef %31) #5
  br label %64

47:                                               ; preds = %45, %29
  %.129 = phi ptr [ %38, %45 ], [ null, %29 ]
  %48 = icmp eq i64 %2, 2
  br i1 %48, label %.thread57, label %49

49:                                               ; preds = %47
  %50 = getelementptr i8, ptr %1, i64 16
  %51 = load ptr, ptr %50, align 8, !tbaa !22
  %52 = call i32 @PyObject_IsTrue(ptr noundef %51) #5
  %.fr = freeze i32 %52
  %53 = icmp slt i32 %.fr, 0
  br i1 %53, label %64, label %55

.thread57:                                        ; preds = %27, %47
  %.028.ph = phi ptr [ %.129, %47 ], [ null, %27 ]
  %.val4860 = load ptr, ptr %5, align 8, !tbaa !28
  %54 = getelementptr inbounds nuw i8, ptr %5, i64 16
  %.val4961 = load i64, ptr %54, align 8, !tbaa !31
  call void @llvm.lifetime.start.p0(i64 8, ptr nonnull %4) #5
  store i64 %.val4961, ptr %4, align 8, !tbaa !21
  br label %57

55:                                               ; preds = %49
  %.val48 = load ptr, ptr %5, align 8, !tbaa !28
  %56 = getelementptr inbounds nuw i8, ptr %5, i64 16
  %.val49 = load i64, ptr %56, align 8, !tbaa !31
  call void @llvm.lifetime.start.p0(i64 8, ptr nonnull %4) #5
  store i64 %.val49, ptr %4, align 8, !tbaa !21
  %.not.i = icmp eq i32 %.fr, 0
  %spec.select = select i1 %.not.i, ptr %4, ptr null
  br label %57

57:                                               ; preds = %55, %.thread57
  %.val4966 = phi i64 [ %.val4961, %.thread57 ], [ %.val49, %55 ]
  %.val4865 = phi ptr [ %.val4860, %.thread57 ], [ %.val48, %55 ]
  %.02864 = phi ptr [ %.028.ph, %.thread57 ], [ %.129, %55 ]
  %58 = phi ptr [ null, %.thread57 ], [ %spec.select, %55 ]
  %59 = call ptr @_PyUnicode_DecodeUnicodeEscapeStateful(ptr noundef %.val4865, i64 noundef %.val4966, ptr noundef %.02864, ptr noundef %58) #5
  %60 = icmp eq ptr %59, null
  br i1 %60, label %_codecs_unicode_escape_decode_impl.exit, label %61

61:                                               ; preds = %57
  %62 = load i64, ptr %4, align 8, !tbaa !21
  %63 = call ptr (ptr, ...) @Py_BuildValue(ptr noundef nonnull @.str.55, ptr noundef nonnull %59, i64 noundef %62) #5
  br label %_codecs_unicode_escape_decode_impl.exit

_codecs_unicode_escape_decode_impl.exit:          ; preds = %57, %61
  %.0.i.i = phi ptr [ %63, %61 ], [ null, %57 ]
  call void @llvm.lifetime.end.p0(i64 8, ptr nonnull %4) #5
  br label %64

64:                                               ; preds = %.thread53, %.thread, %49, %25, %9, %_codecs_unicode_escape_decode_impl.exit, %46
  %.030 = phi ptr [ %.0.i.i, %_codecs_unicode_escape_decode_impl.exit ], [ null, %49 ], [ null, %46 ], [ null, %25 ], [ null, %9 ], [ null, %.thread ], [ null, %.thread53 ]
  %65 = getelementptr inbounds nuw i8, ptr %5, i64 8
  %66 = load ptr, ptr %65, align 8, !tbaa !32
  %.not40 = icmp eq ptr %66, null
  br i1 %.not40, label %68, label %67

67:                                               ; preds = %64
  call void @PyBuffer_Release(ptr noundef nonnull %5) #5
  br label %68

68:                                               ; preds = %64, %67
  call void @llvm.lifetime.end.p0(i64 80, ptr nonnull %5) #5
  ret ptr %.030
}